target datalayout = "e-m:e-p270:32:32-p271:32:32-p272:64:64-i64:64-i128:128-f80:128-n8:16:32:64-S128"
target triple = "x86_64-pc-linux-gnu"

%struct.H5D_chk_idx_info_t = type { ptr, ptr, ptr, ptr }
%struct.H5D_chunk_ud_t = type { %struct.H5D_chunk_common_ud_t, i32, %struct.H5F_block_t, i32, i8, i64 }
%struct.H5D_chunk_common_ud_t = type { ptr, ptr, ptr }
%struct.H5F_block_t = type { i64, i64 }

@H5D_init_g = external global i8, align 1
@H5_libterm_g = external global i8, align 1
@.str.2 = private unnamed_addr constant [103 x i8] c"generated/home/dtcxzyw/WorkSpace/Projects/compilers/llvm-opt-benchmark/bench/hdf5/hdf5/src/H5Dearray.c\00", align 1
@H5E_DATASET_g = external global i64, align 8
@H5E_CANTGET_g = external global i64, align 8
@__func__.H5D__earray_idx_load_metadata = private unnamed_addr constant [30 x i8] c"H5D__earray_idx_load_metadata\00", align 1
@.str.33 = private unnamed_addr constant [47 x i8] c"can't load extensible array header index block\00", align 1

; Function Attrs: nounwind uwtable
define internal i32 @H5D__earray_idx_load_metadata(ptr noundef %0) #0 {
  %2 = alloca ptr, align 8
  %3 = alloca %struct.H5D_chunk_ud_t, align 8
  %4 = alloca [33 x i64], align 16
  %5 = alloca i32, align 4
  %6 = alloca i8, align 1
  store ptr %0, ptr %2, align 8, !tbaa !3
  call void @llvm.lifetime.start.p0(i64 64, ptr %3) #8
  call void @llvm.lifetime.start.p0(i64 264, ptr %4) #8
  call void @llvm.memset.p0.i64(ptr align 16 %4, i8 0, i64 264, i1 false)
  call void @llvm.lifetime.start.p0(i64 4, ptr %5) #8
  store i32 0, ptr %5, align 4, !tbaa !12
  call void @llvm.lifetime.start.p0(i64 1, ptr %6) #8
  store i8 0, ptr %6, align 1, !tbaa !14
  %7 = load i8, ptr @H5D_init_g, align 1, !tbaa !14, !range !16, !noundef !17
  %8 = trunc i8 %7 to i1
  br i1 %8, label %13, label %9

9:                                                ; preds = %1
  %10 = load i8, ptr @H5_libterm_g, align 1, !tbaa !14, !range !16, !noundef !17
  %11 = trunc i8 %10 to i1
  %12 = xor i1 %11, true
  br label %13

13:                                               ; preds = %9, %1
  %14 = phi i1 [ true, %1 ], [ %12, %9 ]
  %15 = xor i1 %14, true
  %16 = xor i1 %15, true
  %17 = zext i1 %16 to i32
  %18 = sext i32 %17 to i64
  %19 = call i64 @llvm.expect.i64(i64 %18, i64 1)
  %20 = icmp ne i64 %19, 0
  br i1 %20, label %21, label %66

21:                                               ; preds = %13
  %22 = load ptr, ptr %2, align 8, !tbaa !3
  %23 = getelementptr inbounds nuw %struct.H5D_chk_idx_info_t, ptr %22, i32 0, i32 2
  %24 = load ptr, ptr %23, align 8, !tbaa !20
  %25 = getelementptr inbounds nuw %struct.H5D_chunk_ud_t, ptr %3, i32 0, i32 0
  %26 = getelementptr inbounds nuw %struct.H5D_chunk_common_ud_t, ptr %25, i32 0, i32 0
  store ptr %24, ptr %26, align 8, !tbaa !75
  %27 = load ptr, ptr %2, align 8, !tbaa !3
  %28 = getelementptr inbounds nuw %struct.H5D_chk_idx_info_t, ptr %27, i32 0, i32 3
  %29 = load ptr, ptr %28, align 8, !tbaa !27
  %30 = getelementptr inbounds nuw %struct.H5D_chunk_ud_t, ptr %3, i32 0, i32 0
  %31 = getelementptr inbounds nuw %struct.H5D_chunk_common_ud_t, ptr %30, i32 0, i32 1
  store ptr %29, ptr %31, align 8, !tbaa !76
  %32 = getelementptr inbounds [33 x i64], ptr %4, i64 0, i64 0
  %33 = getelementptr inbounds nuw %struct.H5D_chunk_ud_t, ptr %3, i32 0, i32 0
  %34 = getelementptr inbounds nuw %struct.H5D_chunk_common_ud_t, ptr %33, i32 0, i32 2
  store ptr %32, ptr %34, align 8, !tbaa !73
  %35 = getelementptr inbounds nuw %struct.H5D_chunk_ud_t, ptr %3, i32 0, i32 2
  %36 = getelementptr inbounds nuw %struct.H5F_block_t, ptr %35, i32 0, i32 0
  store i64 -1, ptr %36, align 8, !tbaa !60
  %37 = getelementptr inbounds nuw %struct.H5D_chunk_ud_t, ptr %3, i32 0, i32 2
  %38 = getelementptr inbounds nuw %struct.H5F_block_t, ptr %37, i32 0, i32 1
  store i64 0, ptr %38, align 8, !tbaa !68
  %39 = getelementptr inbounds nuw %struct.H5D_chunk_ud_t, ptr %3, i32 0, i32 3
  store i32 0, ptr %39, align 8, !tbaa !70
  %40 = getelementptr inbounds nuw %struct.H5D_chunk_ud_t, ptr %3, i32 0, i32 4
  store i8 0, ptr %40, align 4, !tbaa !77
  %41 = getelementptr inbounds nuw %struct.H5D_chunk_ud_t, ptr %3, i32 0, i32 1
  store i32 -1, ptr %41, align 8, !tbaa !78
  %42 = load ptr, ptr %2, align 8, !tbaa !3
  %43 = call i32 @H5D__earray_idx_get_addr(ptr noundef %42, ptr noundef %3)
  %44 = icmp slt i32 %43, 0
  br i1 %44, label %45, label %64

45:                                               ; preds = %21
  br label %46

46:                                               ; preds = %45
  br label %47

47:                                               ; preds = %46
  br label %48

48:                                               ; preds = %47
  %49 = load i64, ptr @H5E_DATASET_g, align 8, !tbaa !10
  %50 = load i64, ptr @H5E_CANTGET_g, align 8, !tbaa !10
  %51 = call i32 (ptr, ptr, i32, i64, i64, ptr, ...) @H5E_printf_stack(ptr noundef @.str.2, ptr noundef @__func__.H5D__earray_idx_load_metadata, i32 noundef 1192, i64 noundef %49, i64 noundef %50, ptr noundef @.str.33)
  br label %52

52:                                               ; preds = %48
  br label %53

53:                                               ; preds = %52
  store i8 1, ptr %6, align 1, !tbaa !14
  %54 = load i8, ptr %6, align 1, !tbaa !14, !range !16, !noundef !17
  %55 = trunc i8 %54 to i1
  %56 = zext i1 %55 to i8
  store i8 %56, ptr %6, align 1, !tbaa !14
  br label %57

57:                                               ; preds = %53
  br label %58

58:                                               ; preds = %57
  br label %59

59:                                               ; preds = %58
  store i32 -1, ptr %5, align 4, !tbaa !12
  br label %65

60:                                               ; No predecessors!
  br label %61

61:                                               ; preds = %60
  br label %62

62:                                               ; preds = %61
  br label %63

63:                                               ; preds = %62
  br label %64

64:                                               ; preds = %63, %21
  br label %65

65:                                               ; preds = %64, %59
  br label %66

66:                                               ; preds = %65, %13
  %67 = load i32, ptr %5, align 4, !tbaa !12
  call void @llvm.lifetime.end.p0(i64 1, ptr %6) #8
  call void @llvm.lifetime.end.p0(i64 4, ptr %5) #8
  call void @llvm.lifetime.end.p0(i64 264, ptr %4) #8
  call void @llvm.lifetime.end.p0(i64 64, ptr %3) #8
  ret i32 %67
}