; Function Attrs: nounwind uwtable
define internal range(i32 -1, 1) i32 @H5D__earray_idx_load_metadata(ptr noundef readonly captures(none) %0) #0 {
  %2 = alloca %struct.H5D_chunk_ud_t, align 8
  %3 = alloca [33 x i64], align 16
  call void @llvm.lifetime.start.p0(i64 64, ptr nonnull %2) #11
  call void @llvm.lifetime.start.p0(i64 264, ptr nonnull %3) #11
  call void @llvm.memset.p0.i64(ptr noundef nonnull align 16 dereferenceable(264) %3, i8 0, i64 264, i1 false)
  %4 = load i8, ptr @H5D_init_g, align 1, !tbaa !3, !range !7, !noundef !8
  %5 = trunc nuw i8 %4 to i1
  %6 = load i8, ptr @H5_libterm_g, align 1, !range !7
  %7 = trunc nuw i8 %6 to i1
  %8 = xor i1 %7, true
  %9 = select i1 %5, i1 true, i1 %8
  br i1 %9, label %10, label %28, !prof !9

10:                                               ; preds = %1
  %11 = getelementptr inbounds nuw i8, ptr %0, i64 16
  %12 = load ptr, ptr %11, align 8, !tbaa !14
  store ptr %12, ptr %2, align 8, !tbaa !63
  %13 = getelementptr inbounds nuw i8, ptr %0, i64 24
  %14 = load ptr, ptr %13, align 8, !tbaa !22
  %15 = getelementptr inbounds nuw i8, ptr %2, i64 8
  store ptr %14, ptr %15, align 8, !tbaa !64
  %16 = getelementptr inbounds nuw i8, ptr %2, i64 16
  store ptr %3, ptr %16, align 8, !tbaa !60
  %17 = getelementptr inbounds nuw i8, ptr %2, i64 32
  store i64 -1, ptr %17, align 8, !tbaa !47
  %18 = getelementptr inbounds nuw i8, ptr %2, i64 40
  store i64 0, ptr %18, align 8, !tbaa !55
  %19 = getelementptr inbounds nuw i8, ptr %2, i64 48
  store i32 0, ptr %19, align 8, !tbaa !57
  %20 = getelementptr inbounds nuw i8, ptr %2, i64 52
  store i8 0, ptr %20, align 4, !tbaa !65
  %21 = getelementptr inbounds nuw i8, ptr %2, i64 24
  store i32 -1, ptr %21, align 8, !tbaa !66
  %22 = call i32 @H5D__earray_idx_get_addr(ptr noundef %0, ptr noundef nonnull %2)
  %23 = icmp slt i32 %22, 0
  br i1 %23, label %24, label %28

24:                                               ; preds = %10
  %25 = load i64, ptr @H5E_DATASET_g, align 8, !tbaa !10
  %26 = load i64, ptr @H5E_CANTGET_g, align 8, !tbaa !10
  %27 = call i32 (ptr, ptr, i32, i64, i64, ptr, ...) @H5E_printf_stack(ptr noundef nonnull @.str.2, ptr noundef nonnull @__func__.H5D__earray_idx_load_metadata, i32 noundef 1192, i64 noundef %25, i64 noundef %26, ptr noundef nonnull @.str.33) #11
  br label %28

28:                                               ; preds = %24, %10, %1
  %.0 = phi i32 [ -1, %24 ], [ 0, %10 ], [ 0, %1 ]
  call void @llvm.lifetime.end.p0(i64 264, ptr nonnull %3) #11
  call void @llvm.lifetime.end.p0(i64 64, ptr nonnull %2) #11
  ret i32 %.0
}